target datalayout = "e-m:e-p270:32:32-p271:32:32-p272:64:64-i64:64-i128:128-f80:128-n8:16:32:64-S128"
target triple = "x86_64-pc-linux-gnu"

@dohash.hashout = internal global [64 x i8] zeroinitializer, align 16

; Function Attrs: nounwind uwtable
define internal ptr @dohash(ptr noundef %0, ptr noundef %1, i64 noundef %2) #0 {
  %4 = alloca ptr, align 8
  %5 = alloca ptr, align 8
  %6 = alloca ptr, align 8
  %7 = alloca i64, align 8
  store ptr %0, ptr %5, align 8, !tbaa !14
  store ptr %1, ptr %6, align 8, !tbaa !16
  store i64 %2, ptr %7, align 8, !tbaa !18
  %8 = load ptr, ptr %5, align 8, !tbaa !14
  %9 = call ptr @EVP_shake256()
  %10 = call i32 @EVP_DigestInit_ex(ptr noundef %8, ptr noundef %9, ptr noundef null)
  %11 = icmp ne i32 %10, 0
  br i1 %11, label %12, label %22

12:                                               ; preds = %3
  %13 = load ptr, ptr %5, align 8, !tbaa !14
  %14 = load ptr, ptr %6, align 8, !tbaa !16
  %15 = load i64, ptr %7, align 8, !tbaa !18
  %16 = call i32 @EVP_DigestUpdate(ptr noundef %13, ptr noundef %14, i64 noundef %15)
  %17 = icmp ne i32 %16, 0
  br i1 %17, label %18, label %22

18:                                               ; preds = %12
  %19 = load ptr, ptr %5, align 8, !tbaa !14
  %20 = call i32 @EVP_DigestFinalXOF(ptr noundef %19, ptr noundef @dohash.hashout, i64 noundef 64)
  %21 = icmp ne i32 %20, 0
  br i1 %21, label %23, label %22

22:                                               ; preds = %18, %12, %3
  store ptr null, ptr %4, align 8
  br label %24

23:                                               ; preds = %18
  store ptr @dohash.hashout, ptr %4, align 8
  br label %24

24:                                               ; preds = %23, %22
  %25 = load ptr, ptr %4, align 8
  ret ptr %25
}