; Function Attrs: nounwind uwtable
define internal fastcc ptr @dohash(ptr noundef %0, ptr noundef %1) unnamed_addr #1 {
  %3 = tail call ptr @EVP_shake256() #8
  %4 = tail call i32 @EVP_DigestInit_ex(ptr noundef %0, ptr noundef %3, ptr noundef null) #8
  %.not = icmp eq i32 %4, 0
  br i1 %.not, label %9, label %5

5:                                                ; preds = %2
  %6 = tail call i32 @EVP_DigestUpdate(ptr noundef %0, ptr noundef %1, i64 noundef 3) #8
  %.not5 = icmp eq i32 %6, 0
  br i1 %.not5, label %9, label %7

7:                                                ; preds = %5
  %8 = tail call i32 @EVP_DigestFinalXOF(ptr noundef %0, ptr noundef nonnull @dohash.hashout, i64 noundef 64) #8
  %.not6 = icmp eq i32 %8, 0
  %spec.select = select i1 %.not6, ptr null, ptr @dohash.hashout
  br label %9

9:                                                ; preds = %7, %2, %5
  %.0 = phi ptr [ null, %5 ], [ null, %2 ], [ %spec.select, %7 ]
  ret ptr %.0
}